target datalayout = "e-m:e-p270:32:32-p271:32:32-p272:64:64-i64:64-i128:128-f80:128-n8:16:32:64-S128"
target triple = "x86_64-pc-linux-gnu"

%struct._h223_call_info = type { i32, %struct._address, i32, [2 x %struct.h223_call_direction_data] }
%struct._address = type { i32, i32, ptr, ptr }
%struct.h223_call_direction_data = type { [16 x ptr] }
%struct.h223_lc_params = type { i32, ptr, i32, ptr }
%struct._h223_mux_element = type { ptr, i16, i16, ptr }
%struct._h223_mux_element_listitem = type { ptr, i32, i32, ptr }

@srp_handle = internal global ptr null, align 8
@.str.112 = private unnamed_addr constant [29 x i8] c"%s:%u: failed assertion \22%s\22\00", align 1
@.str.113 = private unnamed_addr constant [30 x i8] c"epan/dissectors/packet-h223.c\00", align 1
@.str.115 = private unnamed_addr constant [8 x i8] c"mc < 16\00", align 1
@pdu_offset = internal global i32 0, align 4

; Function Attrs: nounwind uwtable
define internal void @add_h223_mux_element(ptr noundef %0, i8 noundef zeroext %1, ptr noundef %2, i32 noundef %3) #0 {
  %5 = alloca ptr, align 8
  %6 = alloca i8, align 1
  %7 = alloca ptr, align 8
  %8 = alloca i32, align 4
  %9 = alloca ptr, align 8
  %10 = alloca ptr, align 8
  %11 = alloca ptr, align 8
  store ptr %0, ptr %5, align 8
  store i8 %1, ptr %6, align 1
  store ptr %2, ptr %7, align 8
  store i32 %3, ptr %8, align 4
  %12 = load i8, ptr %6, align 1
  %13 = zext i8 %12 to i32
  %14 = icmp slt i32 %13, 16
  br i1 %14, label %15, label %16

15:                                               ; preds = %4
  br label %18

16:                                               ; preds = %4
  call void (ptr, ...) @proto_report_dissector_bug(ptr noundef @.str.112, ptr noundef @.str.113, i32 noundef 279, ptr noundef @.str.115) #6
  unreachable

17:                                               ; No predecessors!
  br label %18

18:                                               ; preds = %17, %15
  %19 = call ptr @wmem_file_scope()
  %20 = call noalias ptr @wmem_alloc(ptr noundef %19, i64 noundef 24)
  store ptr %20, ptr %9, align 8
  %21 = load ptr, ptr %5, align 8
  %22 = getelementptr inbounds %struct.h223_call_direction_data, ptr %21, i32 0, i32 0
  %23 = load i8, ptr %6, align 1
  %24 = zext i8 %23 to i64
  %25 = getelementptr [16 x ptr], ptr %22, i64 0, i64 %24
  store ptr %25, ptr %10, align 8
  %26 = load ptr, ptr %10, align 8
  %27 = load ptr, ptr %26, align 8
  store ptr %27, ptr %11, align 8
  %28 = load ptr, ptr %11, align 8
  %29 = icmp ne ptr %28, null
  br i1 %29, label %37, label %30

30:                                               ; preds = %18
  %31 = load ptr, ptr %9, align 8
  %32 = load ptr, ptr %5, align 8
  %33 = getelementptr inbounds %struct.h223_call_direction_data, ptr %32, i32 0, i32 0
  %34 = load i8, ptr %6, align 1
  %35 = zext i8 %34 to i64
  %36 = getelementptr [16 x ptr], ptr %33, i64 0, i64 %35
  store ptr %31, ptr %36, align 8
  br label %88

37:                                               ; preds = %18
  br label %38

38:                                               ; preds = %43, %37
  %39 = load ptr, ptr %11, align 8
  %40 = getelementptr inbounds %struct._h223_mux_element_listitem, ptr %39, i32 0, i32 3
  %41 = load ptr, ptr %40, align 8
  %42 = icmp ne ptr %41, null
  br i1 %42, label %43, label %48

43:                                               ; preds = %38
  %44 = load ptr, ptr %11, align 8
  %45 = getelementptr inbounds %struct._h223_mux_element_listitem, ptr %44, i32 0, i32 3
  store ptr %45, ptr %10, align 8
  %46 = load ptr, ptr %10, align 8
  %47 = load ptr, ptr %46, align 8
  store ptr %47, ptr %11, align 8
  br label %38, !llvm.loop !8

48:                                               ; preds = %38
  %49 = load i32, ptr %8, align 4
  %50 = load ptr, ptr %11, align 8
  %51 = getelementptr inbounds %struct._h223_mux_element_listitem, ptr %50, i32 0, i32 1
  %52 = load i32, ptr %51, align 8
  %53 = icmp ult i32 %49, %52
  br i1 %53, label %66, label %54

54:                                               ; preds = %48
  %55 = load i32, ptr %8, align 4
  %56 = load ptr, ptr %11, align 8
  %57 = getelementptr inbounds %struct._h223_mux_element_listitem, ptr %56, i32 0, i32 1
  %58 = load i32, ptr %57, align 8
  %59 = icmp eq i32 %55, %58
  br i1 %59, label %60, label %67

60:                                               ; preds = %54
  %61 = load i32, ptr @pdu_offset, align 4
  %62 = load ptr, ptr %11, align 8
  %63 = getelementptr inbounds %struct._h223_mux_element_listitem, ptr %62, i32 0, i32 2
  %64 = load i32, ptr %63, align 4
  %65 = icmp ult i32 %61, %64
  br i1 %65, label %66, label %67

66:                                               ; preds = %60, %48
  br label %100

67:                                               ; preds = %60, %54
  %68 = load i32, ptr %8, align 4
  %69 = load ptr, ptr %11, align 8
  %70 = getelementptr inbounds %struct._h223_mux_element_listitem, ptr %69, i32 0, i32 1
  %71 = load i32, ptr %70, align 8
  %72 = icmp eq i32 %68, %71
  br i1 %72, label %73, label %82

73:                                               ; preds = %67
  %74 = load i32, ptr @pdu_offset, align 4
  %75 = load ptr, ptr %11, align 8
  %76 = getelementptr inbounds %struct._h223_mux_element_listitem, ptr %75, i32 0, i32 2
  %77 = load i32, ptr %76, align 4
  %78 = icmp eq i32 %74, %77
  br i1 %78, label %79, label %82

79:                                               ; preds = %73
  %80 = load ptr, ptr %9, align 8
  %81 = load ptr, ptr %10, align 8
  store ptr %80, ptr %81, align 8
  br label %86

82:                                               ; preds = %73, %67
  %83 = load ptr, ptr %9, align 8
  %84 = load ptr, ptr %11, align 8
  %85 = getelementptr inbounds %struct._h223_mux_element_listitem, ptr %84, i32 0, i32 3
  store ptr %83, ptr %85, align 8
  br label %86

86:                                               ; preds = %82, %79
  br label %87

87:                                               ; preds = %86
  br label %88

88:                                               ; preds = %87, %30
  %89 = load i32, ptr %8, align 4
  %90 = load ptr, ptr %9, align 8
  %91 = getelementptr inbounds %struct._h223_mux_element_listitem, ptr %90, i32 0, i32 1
  store i32 %89, ptr %91, align 8
  %92 = load i32, ptr @pdu_offset, align 4
  %93 = load ptr, ptr %9, align 8
  %94 = getelementptr inbounds %struct._h223_mux_element_listitem, ptr %93, i32 0, i32 2
  store i32 %92, ptr %94, align 4
  %95 = load ptr, ptr %9, align 8
  %96 = getelementptr inbounds %struct._h223_mux_element_listitem, ptr %95, i32 0, i32 3
  store ptr null, ptr %96, align 8
  %97 = load ptr, ptr %7, align 8
  %98 = load ptr, ptr %9, align 8
  %99 = getelementptr inbounds %struct._h223_mux_element_listitem, ptr %98, i32 0, i32 0
  store ptr %97, ptr %99, align 8
  br label %100

100:                                              ; preds = %88, %66
  ret void
}

; Function Attrs: nounwind uwtable
define internal void @init_direction_data(ptr noundef %0) #0 {
  %2 = alloca ptr, align 8
  %3 = alloca i32, align 4
  %4 = alloca ptr, align 8
  store ptr %0, ptr %2, align 8
  store i32 0, ptr %3, align 4
  br label %5

5:                                                ; preds = %14, %1
  %6 = load i32, ptr %3, align 4
  %7 = icmp slt i32 %6, 16
  br i1 %7, label %8, label %17

8:                                                ; preds = %5
  %9 = load ptr, ptr %2, align 8
  %10 = getelementptr inbounds %struct.h223_call_direction_data, ptr %9, i32 0, i32 0
  %11 = load i32, ptr %3, align 4
  %12 = sext i32 %11 to i64
  %13 = getelementptr [16 x ptr], ptr %10, i64 0, i64 %12
  store ptr null, ptr %13, align 8
  br label %14

14:                                               ; preds = %8
  %15 = load i32, ptr %3, align 4
  %16 = add i32 %15, 1
  store i32 %16, ptr %3, align 4
  br label %5, !llvm.loop !7

17:                                               ; preds = %5
  %18 = call ptr @wmem_file_scope()
  %19 = call noalias ptr @wmem_alloc(ptr noundef %18, i64 noundef 24)
  store ptr %19, ptr %4, align 8
  %20 = load ptr, ptr %2, align 8
  %21 = load ptr, ptr %4, align 8
  call void @add_h223_mux_element(ptr noundef %20, i8 noundef zeroext 0, ptr noundef %21, i32 noundef 0)
  %22 = load ptr, ptr %4, align 8
  %23 = getelementptr inbounds %struct._h223_mux_element, ptr %22, i32 0, i32 0
  store ptr null, ptr %23, align 8
  %24 = load ptr, ptr %4, align 8
  %25 = getelementptr inbounds %struct._h223_mux_element, ptr %24, i32 0, i32 1
  store i16 0, ptr %25, align 8
  %26 = load ptr, ptr %4, align 8
  %27 = getelementptr inbounds %struct._h223_mux_element, ptr %26, i32 0, i32 2
  store i16 0, ptr %27, align 2
  %28 = load ptr, ptr %4, align 8
  %29 = getelementptr inbounds %struct._h223_mux_element, ptr %28, i32 0, i32 3
  store ptr null, ptr %29, align 8
  ret void
}

; Function Attrs: nounwind uwtable
define internal ptr @create_call_info(i32 noundef %0) #0 {
  %2 = alloca i32, align 4
  %3 = alloca ptr, align 8
  %4 = alloca ptr, align 8
  store i32 %0, ptr %2, align 4
  %5 = call ptr @wmem_file_scope()
  %6 = call noalias ptr @wmem_alloc(ptr noundef %5, i64 noundef 296)
  store ptr %6, ptr %3, align 8
  %7 = load ptr, ptr %3, align 8
  %8 = getelementptr inbounds %struct._h223_call_info, ptr %7, i32 0, i32 3
  %9 = getelementptr [2 x %struct.h223_call_direction_data], ptr %8, i64 0, i64 0
  call void @init_direction_data(ptr noundef %9)
  %10 = load ptr, ptr %3, align 8
  %11 = getelementptr inbounds %struct._h223_call_info, ptr %10, i32 0, i32 3
  %12 = getelementptr [2 x %struct.h223_call_direction_data], ptr %11, i64 0, i64 1
  call void @init_direction_data(ptr noundef %12)
  %13 = load ptr, ptr %3, align 8
  %14 = getelementptr inbounds %struct._h223_call_info, ptr %13, i32 0, i32 0
  store i32 2, ptr %14, align 8
  %15 = call ptr @wmem_file_scope()
  %16 = call noalias ptr @wmem_alloc(ptr noundef %15, i64 noundef 32)
  store ptr %16, ptr %4, align 8
  %17 = load ptr, ptr %4, align 8
  %18 = getelementptr inbounds %struct.h223_lc_params, ptr %17, i32 0, i32 0
  store i32 1, ptr %18, align 8
  %19 = load ptr, ptr %4, align 8
  %20 = getelementptr inbounds %struct.h223_lc_params, ptr %19, i32 0, i32 1
  store ptr null, ptr %20, align 8
  %21 = load ptr, ptr %4, align 8
  %22 = getelementptr inbounds %struct.h223_lc_params, ptr %21, i32 0, i32 2
  store i32 1, ptr %22, align 8
  %23 = load ptr, ptr @srp_handle, align 8
  %24 = load ptr, ptr %4, align 8
  %25 = getelementptr inbounds %struct.h223_lc_params, ptr %24, i32 0, i32 3
  store ptr %23, ptr %25, align 8
  %26 = load i32, ptr %2, align 4
  %27 = load ptr, ptr %3, align 8
  %28 = load ptr, ptr %4, align 8
  call void @init_logical_channel(i32 noundef %26, ptr noundef %27, i32 noundef 0, i32 noundef 0, ptr noundef %28)
  %29 = load i32, ptr %2, align 4
  %30 = load ptr, ptr %3, align 8
  %31 = load ptr, ptr %4, align 8
  call void @init_logical_channel(i32 noundef %29, ptr noundef %30, i32 noundef 0, i32 noundef 1, ptr noundef %31)
  %32 = load ptr, ptr %3, align 8
  ret ptr %32
}