; Function Attrs: nounwind uwtable
define internal fastcc ptr @create_call_info(i32 noundef %0) unnamed_addr #0 {
init_direction_data.exit20:
  %1 = tail call ptr @wmem_file_scope() #12
  %2 = tail call noalias ptr @wmem_alloc(ptr noundef %1, i64 noundef 296) #12
  %3 = getelementptr inbounds nuw i8, ptr %2, i64 40
  %4 = getelementptr inbounds nuw i8, ptr %2, i64 48
  tail call void @llvm.memset.p0.i64(ptr noundef nonnull align 8 dereferenceable(128) %4, i8 0, i64 120, i1 false)
  %5 = tail call ptr @wmem_file_scope() #12
  %6 = tail call noalias ptr @wmem_alloc(ptr noundef %5, i64 noundef 24) #12
  %7 = tail call ptr @wmem_file_scope() #12
  %8 = tail call noalias ptr @wmem_alloc(ptr noundef %7, i64 noundef 24) #12
  store ptr %8, ptr %3, align 8
  %.pre.i = load i32, ptr @pdu_offset, align 4
  %9 = getelementptr inbounds nuw i8, ptr %8, i64 8
  store i32 0, ptr %9, align 8
  %10 = getelementptr inbounds nuw i8, ptr %8, i64 12
  store i32 %.pre.i, ptr %10, align 4
  %11 = getelementptr inbounds nuw i8, ptr %8, i64 16
  store ptr null, ptr %11, align 8
  store ptr %6, ptr %8, align 8
  store ptr null, ptr %6, align 8
  %12 = getelementptr inbounds nuw i8, ptr %6, i64 8
  store i16 0, ptr %12, align 8
  %13 = getelementptr inbounds nuw i8, ptr %6, i64 10
  store i16 0, ptr %13, align 2
  %14 = getelementptr inbounds nuw i8, ptr %6, i64 16
  store ptr null, ptr %14, align 8
  %15 = getelementptr i8, ptr %2, i64 168
  %16 = getelementptr i8, ptr %2, i64 176
  tail call void @llvm.memset.p0.i64(ptr noundef nonnull align 8 dereferenceable(128) %16, i8 0, i64 120, i1 false)
  %17 = tail call ptr @wmem_file_scope() #12
  %18 = tail call noalias ptr @wmem_alloc(ptr noundef %17, i64 noundef 24) #12
  %19 = tail call ptr @wmem_file_scope() #12
  %20 = tail call noalias ptr @wmem_alloc(ptr noundef %19, i64 noundef 24) #12
  store ptr %20, ptr %15, align 8
  %.pre.i19 = load i32, ptr @pdu_offset, align 4
  %21 = getelementptr inbounds nuw i8, ptr %20, i64 8
  store i32 0, ptr %21, align 8
  %22 = getelementptr inbounds nuw i8, ptr %20, i64 12
  store i32 %.pre.i19, ptr %22, align 4
  %23 = getelementptr inbounds nuw i8, ptr %20, i64 16
  store ptr null, ptr %23, align 8
  store ptr %18, ptr %20, align 8
  store ptr null, ptr %18, align 8
  %24 = getelementptr inbounds nuw i8, ptr %18, i64 8
  store i16 0, ptr %24, align 8
  %25 = getelementptr inbounds nuw i8, ptr %18, i64 10
  store i16 0, ptr %25, align 2
  %26 = getelementptr inbounds nuw i8, ptr %18, i64 16
  store ptr null, ptr %26, align 8
  store i32 2, ptr %2, align 8
  %27 = tail call ptr @wmem_file_scope() #12
  %28 = tail call noalias ptr @wmem_alloc(ptr noundef %27, i64 noundef 32) #12
  store i32 1, ptr %28, align 8
  %29 = getelementptr inbounds nuw i8, ptr %28, i64 8
  store ptr null, ptr %29, align 8
  %30 = getelementptr inbounds nuw i8, ptr %28, i64 16
  store i32 1, ptr %30, align 8
  %31 = load ptr, ptr @srp_handle, align 8
  %32 = getelementptr inbounds nuw i8, ptr %28, i64 24
  store ptr %31, ptr %32, align 8
  tail call fastcc void @init_logical_channel(i32 noundef %0, ptr noundef nonnull %2, i32 noundef 0, i32 noundef 0, ptr noundef nonnull %28)
  tail call fastcc void @init_logical_channel(i32 noundef %0, ptr noundef nonnull %2, i32 noundef 0, i32 noundef 1, ptr noundef nonnull %28)
  ret ptr %2
}